; ModuleID = '40/292.c'
source_filename = "40/292.c"
target datalayout = "e-m:e-p270:32:32-p271:32:32-p272:64:64-i64:64-f80:128-n8:16:32:64-S128"
target triple = "x86_64-pc-linux-gnu"

@.str = private unnamed_addr constant [4 x i8] c"%lf\00", align 1
@.str.1 = private unnamed_addr constant [14 x i8] c"Invalid input\00", align 1
@.str.2 = private unnamed_addr constant [7 x i8] c"%.4lf\0A\00", align 1

; Function Attrs: noinline nounwind uwtable
define dso_local i32 @main() #0 {
  %1 = alloca i32, align 4
  %2 = alloca double, align 8
  %3 = alloca double, align 8
  %4 = alloca double, align 8
  %5 = alloca double, align 8
  %6 = alloca double, align 8
  %7 = alloca double, align 8
  %8 = alloca double, align 8
  store i32 0, i32* %1, align 4
  %9 = call i32 (i8*, ...) @__isoc99_scanf(i8* getelementptr inbounds ([4 x i8], [4 x i8]* @.str, i64 0, i64 0), double* %2)
  %10 = call i32 (i8*, ...) @__isoc99_scanf(i8* getelementptr inbounds ([4 x i8], [4 x i8]* @.str, i64 0, i64 0), double* %3)
  %11 = call i32 (i8*, ...) @__isoc99_scanf(i8* getelementptr inbounds ([4 x i8], [4 x i8]* @.str, i64 0, i64 0), double* %4)
  %12 = call i32 (i8*, ...) @__isoc99_scanf(i8* getelementptr inbounds ([4 x i8], [4 x i8]* @.str, i64 0, i64 0), double* %5)
  %13 = call i32 (i8*, ...) @__isoc99_scanf(i8* getelementptr inbounds ([4 x i8], [4 x i8]* @.str, i64 0, i64 0), double* %6)
  %14 = load double, double* %2, align 8
  %15 = load double, double* %3, align 8
  %16 = fadd double %14, %15
  %17 = load double, double* %4, align 8
  %18 = fadd double %16, %17
  %19 = load double, double* %5, align 8
  %20 = fadd double %18, %19
  %21 = fdiv double %20, 2.000000e+00
  store double %21, double* %7, align 8
  %22 = load double, double* %7, align 8
  %23 = load double, double* %2, align 8
  %24 = fsub double %22, %23
  %25 = fcmp olt double %24, 0.000000e+00
  br i1 %25, label %41, label %26

26:                                               ; preds = %0
  %27 = load double, double* %7, align 8
  %28 = load double, double* %3, align 8
  %29 = fsub double %27, %28
  %30 = fcmp olt double %29, 0.000000e+00
  br i1 %30, label %41, label %31

31:                                               ; preds = %26
  %32 = load double, double* %7, align 8
  %33 = load double, double* %4, align 8
  %34 = fsub double %32, %33
  %35 = fcmp olt double %34, 0.000000e+00
  br i1 %35, label %41, label %36

36:                                               ; preds = %31
  %37 = load double, double* %7, align 8
  %38 = load double, double* %5, align 8
  %39 = fsub double %37, %38
  %40 = fcmp olt double %39, 0.000000e+00
  br i1 %40, label %41, label %44

41:                                               ; preds = %36, %31, %26, %0
  %42 = load double, double* %7, align 8
  %43 = call i32 (i8*, ...) @printf(i8* getelementptr inbounds ([14 x i8], [14 x i8]* @.str.1, i64 0, i64 0), double %42)
  br label %81

44:                                               ; preds = %36
  %45 = load double, double* %7, align 8
  %46 = load double, double* %2, align 8
  %47 = fsub double %45, %46
  %48 = load double, double* %7, align 8
  %49 = load double, double* %3, align 8
  %50 = fsub double %48, %49
  %51 = fmul double %47, %50
  %52 = load double, double* %7, align 8
  %53 = load double, double* %4, align 8
  %54 = fsub double %52, %53
  %55 = fmul double %51, %54
  %56 = load double, double* %7, align 8
  %57 = load double, double* %5, align 8
  %58 = fsub double %56, %57
  %59 = fmul double %55, %58
  %60 = load double, double* %2, align 8
  %61 = load double, double* %3, align 8
  %62 = fmul double %60, %61
  %63 = load double, double* %4, align 8
  %64 = fmul double %62, %63
  %65 = load double, double* %5, align 8
  %66 = fmul double %64, %65
  %67 = load double, double* %6, align 8
  %68 = fmul double %67, 0x400921FB4D12D84A
  %69 = fdiv double %68, 3.600000e+02
  %70 = call double @cos(double %69) #3
  %71 = fmul double %66, %70
  %72 = load double, double* %6, align 8
  %73 = fmul double %72, 0x400921FB4D12D84A
  %74 = fdiv double %73, 3.600000e+02
  %75 = call double @cos(double %74) #3
  %76 = fmul double %71, %75
  %77 = fsub double %59, %76
  %78 = call double @sqrt(double %77) #3
  store double %78, double* %8, align 8
  %79 = load double, double* %8, align 8
  %80 = call i32 (i8*, ...) @printf(i8* getelementptr inbounds ([7 x i8], [7 x i8]* @.str.2, i64 0, i64 0), double %79)
  br label %81

81:                                               ; preds = %44, %41
  ret i32 0
}

declare dso_local i32 @__isoc99_scanf(i8*, ...) #1

declare dso_local i32 @printf(i8*, ...) #1

; Function Attrs: nounwind
declare dso_local double @sqrt(double) #2

; Function Attrs: nounwind
declare dso_local double @cos(double) #2


!llvm.module.flags = !{!0}
!llvm.ident = !{!1}

!0 = !{i32 1, !"wchar_size", i32 4}
!1 = !{!"clang version 10.0.0-4ubuntu1 "}
