; ModuleID = 'source-C-CXX/39/292.c'
source_filename = "source-C-CXX/39/292.c"
target datalayout = "e-m:e-p270:32:32-p271:32:32-p272:64:64-i64:64-f80:128-n8:16:32:64-S128"
target triple = "x86_64-pc-linux-gnu"

@.str = private unnamed_addr constant [4 x i8] c"%lf\00", align 1
@.str.1 = private unnamed_addr constant [14 x i8] c"Invalid input\00", align 1
@.str.2 = private unnamed_addr constant [7 x i8] c"%.4lf\0A\00", align 1

; Function Attrs: nofree nounwind sspstrong uwtable
define dso_local i32 @main() local_unnamed_addr #0 {
  %1 = alloca double, align 8
  %2 = alloca double, align 8
  %3 = alloca double, align 8
  %4 = alloca double, align 8
  %5 = alloca double, align 8
  %6 = bitcast double* %1 to i8*
  call void @llvm.lifetime.start.p0i8(i64 8, i8* nonnull %6) #4
  %7 = bitcast double* %2 to i8*
  call void @llvm.lifetime.start.p0i8(i64 8, i8* nonnull %7) #4
  %8 = bitcast double* %3 to i8*
  call void @llvm.lifetime.start.p0i8(i64 8, i8* nonnull %8) #4
  %9 = bitcast double* %4 to i8*
  call void @llvm.lifetime.start.p0i8(i64 8, i8* nonnull %9) #4
  %10 = bitcast double* %5 to i8*
  call void @llvm.lifetime.start.p0i8(i64 8, i8* nonnull %10) #4
  %11 = call i32 (i8*, ...) @__isoc99_scanf(i8* getelementptr inbounds ([4 x i8], [4 x i8]* @.str, i64 0, i64 0), double* nonnull %1)
  %12 = call i32 (i8*, ...) @__isoc99_scanf(i8* getelementptr inbounds ([4 x i8], [4 x i8]* @.str, i64 0, i64 0), double* nonnull %2)
  %13 = call i32 (i8*, ...) @__isoc99_scanf(i8* getelementptr inbounds ([4 x i8], [4 x i8]* @.str, i64 0, i64 0), double* nonnull %3)
  %14 = call i32 (i8*, ...) @__isoc99_scanf(i8* getelementptr inbounds ([4 x i8], [4 x i8]* @.str, i64 0, i64 0), double* nonnull %4)
  %15 = call i32 (i8*, ...) @__isoc99_scanf(i8* getelementptr inbounds ([4 x i8], [4 x i8]* @.str, i64 0, i64 0), double* nonnull %5)
  %16 = load double, double* %1, align 8, !tbaa !5
  %17 = load double, double* %2, align 8, !tbaa !5
  %18 = fadd double %16, %17
  %19 = load double, double* %3, align 8, !tbaa !5
  %20 = fadd double %18, %19
  %21 = load double, double* %4, align 8, !tbaa !5
  %22 = fadd double %20, %21
  %23 = fmul double %22, 5.000000e-01
  %24 = fsub double %23, %16
  %25 = fcmp olt double %24, 0.000000e+00
  br i1 %25, label %35, label %26

26:                                               ; preds = %0
  %27 = fsub double %23, %17
  %28 = fcmp olt double %27, 0.000000e+00
  br i1 %28, label %35, label %29

29:                                               ; preds = %26
  %30 = fsub double %23, %19
  %31 = fcmp olt double %30, 0.000000e+00
  br i1 %31, label %35, label %32

32:                                               ; preds = %29
  %33 = fsub double %23, %21
  %34 = fcmp olt double %33, 0.000000e+00
  br i1 %34, label %35, label %37

35:                                               ; preds = %32, %29, %26, %0
  %36 = call i32 (i8*, ...) @printf(i8* nonnull dereferenceable(1) getelementptr inbounds ([14 x i8], [14 x i8]* @.str.1, i64 0, i64 0), double %23)
  br label %64

37:                                               ; preds = %32
  %38 = fmul double %16, %17
  %39 = fmul double %38, %19
  %40 = insertelement <2 x double> poison, double %24, i32 0
  %41 = insertelement <2 x double> %40, double %39, i32 1
  %42 = insertelement <2 x double> poison, double %27, i32 0
  %43 = insertelement <2 x double> %42, double %21, i32 1
  %44 = fmul <2 x double> %41, %43
  %45 = load double, double* %5, align 8, !tbaa !5
  %46 = fmul double %45, 0x400921FB4D12D84A
  %47 = fdiv double %46, 3.600000e+02
  %48 = call double @cos(double %47) #4
  %49 = insertelement <2 x double> poison, double %30, i32 0
  %50 = insertelement <2 x double> %49, double %48, i32 1
  %51 = fmul <2 x double> %50, %44
  %52 = load double, double* %5, align 8, !tbaa !5
  %53 = fmul double %52, 0x400921FB4D12D84A
  %54 = fdiv double %53, 3.600000e+02
  %55 = call double @cos(double %54) #4
  %56 = insertelement <2 x double> poison, double %33, i32 0
  %57 = insertelement <2 x double> %56, double %55, i32 1
  %58 = fmul <2 x double> %57, %51
  %59 = shufflevector <2 x double> %58, <2 x double> poison, <2 x i32> <i32 1, i32 undef>
  %60 = fsub <2 x double> %58, %59
  %61 = extractelement <2 x double> %60, i32 0
  %62 = call double @sqrt(double %61) #4
  %63 = call i32 (i8*, ...) @printf(i8* nonnull dereferenceable(1) getelementptr inbounds ([7 x i8], [7 x i8]* @.str.2, i64 0, i64 0), double %62)
  br label %64

64:                                               ; preds = %37, %35
  call void @llvm.lifetime.end.p0i8(i64 8, i8* nonnull %10) #4
  call void @llvm.lifetime.end.p0i8(i64 8, i8* nonnull %9) #4
  call void @llvm.lifetime.end.p0i8(i64 8, i8* nonnull %8) #4
  call void @llvm.lifetime.end.p0i8(i64 8, i8* nonnull %7) #4
  call void @llvm.lifetime.end.p0i8(i64 8, i8* nonnull %6) #4
  ret i32 0
}

; Function Attrs: argmemonly mustprogress nofree nosync nounwind willreturn
declare void @llvm.lifetime.start.p0i8(i64 immarg, i8* nocapture) #1

; Function Attrs: nofree nounwind
declare noundef i32 @__isoc99_scanf(i8* nocapture noundef readonly, ...) local_unnamed_addr #2

; Function Attrs: nofree nounwind
declare noundef i32 @printf(i8* nocapture noundef readonly, ...) local_unnamed_addr #2

; Function Attrs: mustprogress nofree nounwind willreturn
declare double @sqrt(double) local_unnamed_addr #3

; Function Attrs: mustprogress nofree nounwind willreturn
declare double @cos(double) local_unnamed_addr #3

; Function Attrs: argmemonly mustprogress nofree nosync nounwind willreturn
declare void @llvm.lifetime.end.p0i8(i64 immarg, i8* nocapture) #1


!llvm.module.flags = !{!0, !1, !2, !3}
!llvm.ident = !{!4}

!0 = !{i32 1, !"wchar_size", i32 4}
!1 = !{i32 7, !"PIC Level", i32 2}
!2 = !{i32 7, !"PIE Level", i32 2}
!3 = !{i32 7, !"uwtable", i32 1}
!4 = !{!"clang version 13.0.0"}
!5 = !{!6, !6, i64 0}
!6 = !{!"double", !7, i64 0}
!7 = !{!"omnipotent char", !8, i64 0}
!8 = !{!"Simple C/C++ TBAA"}
